(dp0
VC1WT942JK
p1
(dp2
Vis_general
p3
I01
sVname
p4
Vgeneral
p5
sVis_channel
p6
I01
sVcreated
p7
I1470030827
sVis_member
p8
I01
sVis_archived
p9
I00
sVcreator
p10
VU1WSYPCG4
p11
sVtopic
p12
(dp13
Vlast_set
p14
I0
sVvalue
p15
VCompany-wide announcements and work-based matters
p16
sVcreator
p17
V
p18
ssVnum_members
p19
I2
sVpurpose
p20
(dp21
Vlast_set
p22
I0
sVvalue
p23
VThis channel is for team-wide communication and announcements. All team members are in this channel.
p24
sVcreator
p25
g18
ssVmembers
p26
(lp27
VU1WSYPCG4
p28
aVU1WTJSX8A
p29
asVid
p30
g1
ssVC1WT1Q064
p31
(dp32
Vis_general
p33
I00
sVname
p34
Vrandom
p35
sVis_channel
p36
I01
sVcreated
p37
I1470030827
sVis_member
p38
I01
sVis_archived
p39
I00
sVcreator
p40
VU1WSYPCG4
p41
sVtopic
p42
(dp43
Vlast_set
p44
I0
sVvalue
p45
VNon-work banter and water cooler conversation
p46
sVcreator
p47
g18
ssVnum_members
p48
I2
sVpurpose
p49
(dp50
Vlast_set
p51
I0
sVvalue
p52
VA place for non-work-related flimflam, faffing, hodge-podge or jibber-jabber you'd prefer to keep out of more focused work-related channels.
p53
sVcreator
p54
g18
ssVmembers
p55
(lp56
VU1WSYPCG4
p57
aVU1WTJSX8A
p58
asVid
p59
g31
ss.