(dp0
Voctocat
p1
Vhttps://emoji.slack-edge.com/T1WT077C6/octocat/627964d7c9.png
p2
sVtrollface
p3
Vhttps://emoji.slack-edge.com/T1WT077C6/trollface/8c0ac4ae98.png
p4
sVneckbeard
p5
Vhttps://emoji.slack-edge.com/T1WT077C6/neckbeard/c8ec7bf188.png
p6
sVgodmode
p7
Vhttps://emoji.slack-edge.com/T1WT077C6/godmode/1bd6476fbb.png
p8
sVglitch_crab
p9
Vhttps://emoji.slack-edge.com/T1WT077C6/glitch_crab/db049f1f9c.png
p10
sVwhite_square
p11
Valias:white_large_square
p12
sVsquirrel
p13
Vhttps://emoji.slack-edge.com/T1WT077C6/squirrel/465f40c0e0.png
p14
sVtroll
p15
Valias:trollface
p16
sVsimple_smile
p17
Vhttps://a.slack-edge.com/66f9/img/emoji_2015/apple-old/simple_smile.png
p18
sVshipit
p19
Valias:squirrel
p20
sVblack_square
p21
Valias:black_large_square
p22
sVberyl
p23
Vhttps://emoji.slack-edge.com/T1WT077C6/beryl/efe1ba7e7a.png
p24
sVsuspect
p25
Vhttps://emoji.slack-edge.com/T1WT077C6/suspect/ca4ab3c7c7.png
p26
sVhurtrealbad
p27
Vhttps://emoji.slack-edge.com/T1WT077C6/hurtrealbad/b9c3d648e6.png
p28
sVgoberserk
p29
Vhttps://emoji.slack-edge.com/T1WT077C6/goberserk/d8b892d59b.png
p30
sVrube
p31
Vhttps://emoji.slack-edge.com/T1WT077C6/rube/74ef8ef199.png
p32
sVfu
p33
Vhttps://emoji.slack-edge.com/T1WT077C6/fu/2f615de37f.png
p34
sVbowtie
p35
Vhttps://emoji.slack-edge.com/T1WT077C6/bowtie/f3ec6f2bb0.png
p36
sVdusty_stick
p37
Vhttps://emoji.slack-edge.com/T1WT077C6/dusty_stick/6177a62312.png
p38
sVrage4
p39
Vhttps://emoji.slack-edge.com/T1WT077C6/rage4/a8029a3996.png
p40
sVrage1
p41
Vhttps://emoji.slack-edge.com/T1WT077C6/rage1/0c3685290c.png
p42
sVrage2
p43
Vhttps://emoji.slack-edge.com/T1WT077C6/rage2/feaf8897c6.png
p44
sVrage3
p45
Vhttps://emoji.slack-edge.com/T1WT077C6/rage3/8e11678fbf.png
p46
sVpride
p47
Vhttps://emoji.slack-edge.com/T1WT077C6/pride/56b1bd3388.png
p48
sVslack
p49
Vhttps://emoji.slack-edge.com/T1WT077C6/slack/5ee0c9bea3.png
p50
sVfinnadie
p51
Vhttps://emoji.slack-edge.com/T1WT077C6/finnadie/08e66eb46d.png
p52
sVmetal
p53
Vhttps://emoji.slack-edge.com/T1WT077C6/metal/9f936a4278.png
p54
sVfeelsgood
p55
Vhttps://emoji.slack-edge.com/T1WT077C6/feelsgood/7bcbaa15fa.png
p56
sVpiggy
p57
Vhttps://emoji.slack-edge.com/T1WT077C6/piggy/b7762ee8cd.png
p58
sVcubimal_chick
p59
Vhttps://emoji.slack-edge.com/T1WT077C6/cubimal_chick/85961c43d7.png
p60
s.