(dp0
VU1WSYPCG4
p1
(dp2
Vstatus
p3
NsVprofile
p4
(dp5
Vfirst_name
p6
VTest
p7
sVlast_name
p8
VPage
p9
sVreal_name
p10
VTest Page
p11
sVimage_24
p12
Vhttps://secure.gravatar.com/avatar/d36cea7142c2aada0eba757534feda99.jpg?s=24&d=https%3A%2F%2Fa.slack-edge.com%2F66f9%2Fimg%2Favatars%2Fava_0019-24.png
p13
sVreal_name_normalized
p14
VTest Page
p15
sVimage_512
p16
Vhttps://secure.gravatar.com/avatar/d36cea7142c2aada0eba757534feda99.jpg?s=512&d=https%3A%2F%2Fa.slack-edge.com%2F7fa9%2Fimg%2Favatars%2Fava_0019-512.png
p17
sVimage_32
p18
Vhttps://secure.gravatar.com/avatar/d36cea7142c2aada0eba757534feda99.jpg?s=32&d=https%3A%2F%2Fa.slack-edge.com%2F66f9%2Fimg%2Favatars%2Fava_0019-32.png
p19
sVimage_48
p20
Vhttps://secure.gravatar.com/avatar/d36cea7142c2aada0eba757534feda99.jpg?s=48&d=https%3A%2F%2Fa.slack-edge.com%2F66f9%2Fimg%2Favatars%2Fava_0019-48.png
p21
sVimage_72
p22
Vhttps://secure.gravatar.com/avatar/d36cea7142c2aada0eba757534feda99.jpg?s=72&d=https%3A%2F%2Fa.slack-edge.com%2F66f9%2Fimg%2Favatars%2Fava_0019-72.png
p23
sVavatar_hash
p24
Vgd36cea7142c
p25
sVemail
p26
Vf1502999@mvrht.com
p27
sVimage_192
p28
Vhttps://secure.gravatar.com/avatar/d36cea7142c2aada0eba757534feda99.jpg?s=192&d=https%3A%2F%2Fa.slack-edge.com%2F7fa9%2Fimg%2Favatars%2Fava_0019-192.png
p29
ssVtz
p30
VEurope/Athens
p31
sVname
p32
Vf1502999
p33
sVdeleted
p34
I00
sVis_bot
p35
I00
sVtz_label
p36
VEastern European Summer Time
p37
sVreal_name
p38
VTest Page
p39
sVcolor
p40
V9f69e7
p41
sVteam_id
p42
VT1WT077C6
p43
sVis_admin
p44
I01
sVis_ultra_restricted
p45
I00
sVis_restricted
p46
I00
sVis_owner
p47
I01
sVtz_offset
p48
I10800
sVid
p49
g1
sVis_primary_owner
p50
I01
ssVU1WTJS6M8
p51
(dp52
Vstatus
p53
NsVprofile
p54
(dp55
Vapi_app_id
p56
V
p57
sVimage_1024
p58
Vhttps://avatars.slack-edge.com/2016-08-01/64917055764_4f429ea3e0fede96da28_512.png
p59
sVreal_name
p60
g57
sVimage_24
p61
Vhttps://avatars.slack-edge.com/2016-08-01/64917055764_4f429ea3e0fede96da28_24.png
p62
sVimage_original
p63
Vhttps://avatars.slack-edge.com/2016-08-01/64917055764_4f429ea3e0fede96da28_original.png
p64
sVreal_name_normalized
p65
g57
sVimage_512
p66
Vhttps://avatars.slack-edge.com/2016-08-01/64917055764_4f429ea3e0fede96da28_512.png
p67
sVimage_32
p68
Vhttps://avatars.slack-edge.com/2016-08-01/64917055764_4f429ea3e0fede96da28_32.png
p69
sVimage_48
p70
Vhttps://avatars.slack-edge.com/2016-08-01/64917055764_4f429ea3e0fede96da28_48.png
p71
sVimage_72
p72
Vhttps://avatars.slack-edge.com/2016-08-01/64917055764_4f429ea3e0fede96da28_72.png
p73
sVavatar_hash
p74
V4f429ea3e0fe
p75
sVimage_192
p76
Vhttps://avatars.slack-edge.com/2016-08-01/64917055764_4f429ea3e0fede96da28_192.png
p77
sVbot_id
p78
VB1WRMK10T
p79
ssVtz
p80
NsVname
p81
Vmybot
p82
sVdeleted
p83
I00
sVis_bot
p84
I01
sVtz_label
p85
VPacific Daylight Time
p86
sVreal_name
p87
g57
sVcolor
p88
V4bbe2e
p89
sVteam_id
p90
VT1WT077C6
p91
sVis_admin
p92
I00
sVis_ultra_restricted
p93
I00
sVis_restricted
p94
I00
sVis_owner
p95
I00
sVtz_offset
p96
I-25200
sVid
p97
g51
sVis_primary_owner
p98
I00
ssVU1WTJSX8A
p99
(dp100
Vstatus
p101
NsVprofile
p102
(dp103
Vapi_app_id
p104
g57
sVimage_1024
p105
Vhttps://avatars.slack-edge.com/2016-08-01/64927416679_79419f06d7916a41c1b5_512.png
p106
sVreal_name
p107
g57
sVimage_24
p108
Vhttps://avatars.slack-edge.com/2016-08-01/64927416679_79419f06d7916a41c1b5_24.png
p109
sVimage_original
p110
Vhttps://avatars.slack-edge.com/2016-08-01/64927416679_79419f06d7916a41c1b5_original.png
p111
sVreal_name_normalized
p112
g57
sVimage_512
p113
Vhttps://avatars.slack-edge.com/2016-08-01/64927416679_79419f06d7916a41c1b5_512.png
p114
sVimage_32
p115
Vhttps://avatars.slack-edge.com/2016-08-01/64927416679_79419f06d7916a41c1b5_32.png
p116
sVimage_48
p117
Vhttps://avatars.slack-edge.com/2016-08-01/64927416679_79419f06d7916a41c1b5_48.png
p118
sVimage_72
p119
Vhttps://avatars.slack-edge.com/2016-08-01/64927416679_79419f06d7916a41c1b5_72.png
p120
sVavatar_hash
p121
V79419f06d791
p122
sVimage_192
p123
Vhttps://avatars.slack-edge.com/2016-08-01/64927416679_79419f06d7916a41c1b5_192.png
p124
sVbot_id
p125
VB1WRMKR8T
p126
ssVtz
p127
NsVname
p128
Vbotwith
p129
sVdeleted
p130
I00
sVis_bot
p131
I01
sVtz_label
p132
VPacific Daylight Time
p133
sVreal_name
p134
g57
sVcolor
p135
Ve7392d
p136
sVteam_id
p137
VT1WT077C6
p138
sVis_admin
p139
I00
sVis_ultra_restricted
p140
I00
sVis_restricted
p141
I00
sVis_owner
p142
I00
sVtz_offset
p143
I-25200
sVid
p144
g99
sVis_primary_owner
p145
I00
ssVUSLACKBOT
p146
(dp147
Vstatus
p148
NsVprofile
p149
(dp150
Vfirst_name
p151
Vslackbot
p152
sVlast_name
p153
g57
sVfields
p154
NsVreal_name
p155
Vslackbot
p156
sVimage_24
p157
Vhttps://a.slack-edge.com/0180/img/slackbot_24.png
p158
sVreal_name_normalized
p159
Vslackbot
p160
sVimage_512
p161
Vhttps://a.slack-edge.com/1801/img/slackbot_512.png
p162
sVimage_32
p163
Vhttps://a.slack-edge.com/2fac/plugins/slackbot/assets/service_32.png
p164
sVimage_48
p165
Vhttps://a.slack-edge.com/2fac/plugins/slackbot/assets/service_48.png
p166
sVavatar_hash
p167
Vsv1444671949
p168
sVimage_72
p169
Vhttps://a.slack-edge.com/0180/img/slackbot_72.png
p170
sVemail
p171
NsVimage_192
p172
Vhttps://a.slack-edge.com/66f9/img/slackbot_192.png
p173
ssVtz
p174
NsVname
p175
Vslackbot
p176
sVdeleted
p177
I00
sVis_bot
p178
I00
sVtz_label
p179
VPacific Daylight Time
p180
sVreal_name
p181
Vslackbot
p182
sVcolor
p183
V757575
p184
sVteam_id
p185
VT1WT077C6
p186
sVis_admin
p187
I00
sVis_ultra_restricted
p188
I00
sVis_restricted
p189
I00
sVis_owner
p190
I00
sVtz_offset
p191
I-25200
sVid
p192
g146
sVis_primary_owner
p193
I00
ss.